target datalayout = "e-m:e-p270:32:32-p271:32:32-p272:64:64-i64:64-i128:128-f80:128-n8:16:32:64-S128"
target triple = "x86_64-pc-linux-gnu"

@history_len = internal global i32 0, align 4
@history = internal global ptr null, align 8
@history_max_len = internal global i32 100, align 4
@history_sensitive = internal global ptr null, align 8

; Function Attrs: nounwind uwtable
define dso_local i32 @linenoiseHistorySetMaxLen(i32 noundef %0) #0 {
  %2 = alloca i32, align 4
  %3 = alloca i32, align 4
  %4 = alloca ptr, align 8
  %5 = alloca ptr, align 8
  %6 = alloca i32, align 4
  %7 = alloca i32, align 4
  %8 = alloca i32, align 4
  store i32 %0, ptr %3, align 4, !tbaa !4
  call void @llvm.lifetime.start.p0(i64 8, ptr %4) #12
  call void @llvm.lifetime.start.p0(i64 8, ptr %5) #12
  %9 = load i32, ptr %3, align 4, !tbaa !4
  %10 = icmp slt i32 %9, 1
  br i1 %10, label %11, label %12

11:                                               ; preds = %1
  store i32 0, ptr %2, align 4
  store i32 1, ptr %6, align 4
  br label %99

12:                                               ; preds = %1
  %13 = load ptr, ptr @history, align 8, !tbaa !20
  %14 = icmp ne ptr %13, null
  br i1 %14, label %15, label %91

15:                                               ; preds = %12
  call void @llvm.lifetime.start.p0(i64 4, ptr %7) #12
  %16 = load i32, ptr @history_len, align 4, !tbaa !4
  store i32 %16, ptr %7, align 4, !tbaa !4
  %17 = load i32, ptr %3, align 4, !tbaa !4
  %18 = sext i32 %17 to i64
  %19 = mul i64 8, %18
  %20 = call noalias ptr @malloc(i64 noundef %19) #14
  store ptr %20, ptr %4, align 8, !tbaa !20
  %21 = load ptr, ptr %4, align 8, !tbaa !20
  %22 = icmp eq ptr %21, null
  br i1 %22, label %23, label %24

23:                                               ; preds = %15
  store i32 0, ptr %2, align 4
  store i32 1, ptr %6, align 4
  br label %88

24:                                               ; preds = %15
  %25 = load i32, ptr %3, align 4, !tbaa !4
  %26 = sext i32 %25 to i64
  %27 = mul i64 4, %26
  %28 = call noalias ptr @malloc(i64 noundef %27) #14
  store ptr %28, ptr %5, align 8, !tbaa !55
  %29 = load ptr, ptr %5, align 8, !tbaa !55
  %30 = icmp eq ptr %29, null
  br i1 %30, label %31, label %33

31:                                               ; preds = %24
  %32 = load ptr, ptr %4, align 8, !tbaa !20
  call void @free(ptr noundef %32) #12
  store i32 0, ptr %2, align 4
  store i32 1, ptr %6, align 4
  br label %88

33:                                               ; preds = %24
  %34 = load i32, ptr %3, align 4, !tbaa !4
  %35 = load i32, ptr %7, align 4, !tbaa !4
  %36 = icmp slt i32 %34, %35
  br i1 %36, label %37, label %55

37:                                               ; preds = %33
  call void @llvm.lifetime.start.p0(i64 4, ptr %8) #12
  store i32 0, ptr %8, align 4, !tbaa !4
  br label %38

38:                                               ; preds = %50, %37
  %39 = load i32, ptr %8, align 4, !tbaa !4
  %40 = load i32, ptr %7, align 4, !tbaa !4
  %41 = load i32, ptr %3, align 4, !tbaa !4
  %42 = sub nsw i32 %40, %41
  %43 = icmp slt i32 %39, %42
  br i1 %43, label %44, label %53

44:                                               ; preds = %38
  %45 = load ptr, ptr @history, align 8, !tbaa !20
  %46 = load i32, ptr %8, align 4, !tbaa !4
  %47 = sext i32 %46 to i64
  %48 = getelementptr inbounds ptr, ptr %45, i64 %47
  %49 = load ptr, ptr %48, align 8, !tbaa !12
  call void @free(ptr noundef %49) #12
  br label %50

50:                                               ; preds = %44
  %51 = load i32, ptr %8, align 4, !tbaa !4
  %52 = add nsw i32 %51, 1
  store i32 %52, ptr %8, align 4, !tbaa !4
  br label %38, !llvm.loop !57

53:                                               ; preds = %38
  %54 = load i32, ptr %3, align 4, !tbaa !4
  store i32 %54, ptr %7, align 4, !tbaa !4
  call void @llvm.lifetime.end.p0(i64 4, ptr %8) #12
  br label %55

55:                                               ; preds = %53, %33
  %56 = load ptr, ptr %4, align 8, !tbaa !20
  %57 = load i32, ptr %3, align 4, !tbaa !4
  %58 = sext i32 %57 to i64
  %59 = mul i64 8, %58
  call void @llvm.memset.p0.i64(ptr align 8 %56, i8 0, i64 %59, i1 false)
  %60 = load ptr, ptr %5, align 8, !tbaa !55
  %61 = load i32, ptr %3, align 4, !tbaa !4
  %62 = sext i32 %61 to i64
  %63 = mul i64 4, %62
  call void @llvm.memset.p0.i64(ptr align 4 %60, i8 0, i64 %63, i1 false)
  %64 = load ptr, ptr %4, align 8, !tbaa !20
  %65 = load ptr, ptr @history, align 8, !tbaa !20
  %66 = load i32, ptr @history_len, align 4, !tbaa !4
  %67 = load i32, ptr %7, align 4, !tbaa !4
  %68 = sub nsw i32 %66, %67
  %69 = sext i32 %68 to i64
  %70 = getelementptr inbounds ptr, ptr %65, i64 %69
  %71 = load i32, ptr %7, align 4, !tbaa !4
  %72 = sext i32 %71 to i64
  %73 = mul i64 8, %72
  call void @llvm.memcpy.p0.p0.i64(ptr align 8 %64, ptr align 8 %70, i64 %73, i1 false)
  %74 = load ptr, ptr %5, align 8, !tbaa !55
  %75 = load ptr, ptr @history_sensitive, align 8, !tbaa !55
  %76 = load i32, ptr @history_len, align 4, !tbaa !4
  %77 = load i32, ptr %7, align 4, !tbaa !4
  %78 = sub nsw i32 %76, %77
  %79 = sext i32 %78 to i64
  %80 = getelementptr inbounds i32, ptr %75, i64 %79
  %81 = load i32, ptr %7, align 4, !tbaa !4
  %82 = sext i32 %81 to i64
  %83 = mul i64 4, %82
  call void @llvm.memcpy.p0.p0.i64(ptr align 4 %74, ptr align 4 %80, i64 %83, i1 false)
  %84 = load ptr, ptr @history, align 8, !tbaa !20
  call void @free(ptr noundef %84) #12
  %85 = load ptr, ptr @history_sensitive, align 8, !tbaa !55
  call void @free(ptr noundef %85) #12
  %86 = load ptr, ptr %4, align 8, !tbaa !20
  store ptr %86, ptr @history, align 8, !tbaa !20
  %87 = load ptr, ptr %5, align 8, !tbaa !55
  store ptr %87, ptr @history_sensitive, align 8, !tbaa !55
  store i32 0, ptr %6, align 4
  br label %88

88:                                               ; preds = %55, %31, %23
  call void @llvm.lifetime.end.p0(i64 4, ptr %7) #12
  %89 = load i32, ptr %6, align 4
  switch i32 %89, label %99 [
    i32 0, label %90
  ]

90:                                               ; preds = %88
  br label %91

91:                                               ; preds = %90, %12
  %92 = load i32, ptr %3, align 4, !tbaa !4
  store i32 %92, ptr @history_max_len, align 4, !tbaa !4
  %93 = load i32, ptr @history_len, align 4, !tbaa !4
  %94 = load i32, ptr @history_max_len, align 4, !tbaa !4
  %95 = icmp sgt i32 %93, %94
  br i1 %95, label %96, label %98

96:                                               ; preds = %91
  %97 = load i32, ptr @history_max_len, align 4, !tbaa !4
  store i32 %97, ptr @history_len, align 4, !tbaa !4
  br label %98

98:                                               ; preds = %96, %91
  store i32 1, ptr %2, align 4
  store i32 1, ptr %6, align 4
  br label %99

99:                                               ; preds = %98, %88, %11
  call void @llvm.lifetime.end.p0(i64 8, ptr %5) #12
  call void @llvm.lifetime.end.p0(i64 8, ptr %4) #12
  %100 = load i32, ptr %2, align 4
  ret i32 %100
}