; Function Attrs: nounwind uwtable
define dso_local range(i32 0, 2) i32 @linenoiseHistorySetMaxLen(i32 noundef %0) local_unnamed_addr #10 {
  %2 = icmp slt i32 %0, 1
  br i1 %2, label %.critedge, label %3

3:                                                ; preds = %1
  %4 = load ptr, ptr @history, align 8, !tbaa !40
  %.not = icmp eq ptr %4, null
  %.pre = load i32, ptr @history_len, align 4, !tbaa !4
  br i1 %.not, label %28, label %5

5:                                                ; preds = %3
  %6 = zext nneg i32 %0 to i64
  %7 = shl nuw nsw i64 %6, 3
  %8 = tail call noalias ptr @malloc(i64 noundef %7) #26
  %9 = icmp eq ptr %8, null
  br i1 %9, label %.critedge, label %10

10:                                               ; preds = %5
  %11 = shl nuw nsw i64 %6, 2
  %12 = tail call noalias ptr @malloc(i64 noundef %11) #26
  %13 = icmp eq ptr %12, null
  br i1 %13, label %14, label %15

14:                                               ; preds = %10
  tail call void @free(ptr noundef nonnull %8) #24
  br label %.critedge

15:                                               ; preds = %10
  %16 = icmp slt i32 %0, %.pre
  br i1 %16, label %.preheader, label %.loopexit

.preheader:                                       ; preds = %15
  %17 = sub nsw i32 %.pre, %0
  %18 = icmp sgt i32 %17, 0
  br i1 %18, label %.lr.ph.preheader, label %.loopexit

.lr.ph.preheader:                                 ; preds = %.preheader
  %wide.trip.count = zext nneg i32 %17 to i64
  br label %.lr.ph

.lr.ph:                                           ; preds = %.lr.ph.preheader, %.lr.ph
  %indvars.iv = phi i64 [ 0, %.lr.ph.preheader ], [ %indvars.iv.next, %.lr.ph ]
  %19 = getelementptr inbounds nuw ptr, ptr %4, i64 %indvars.iv
  %20 = load ptr, ptr %19, align 8, !tbaa !15
  tail call void @free(ptr noundef %20) #24
  %indvars.iv.next = add nuw nsw i64 %indvars.iv, 1
  %exitcond.not = icmp eq i64 %indvars.iv.next, %wide.trip.count
  br i1 %exitcond.not, label %.loopexit, label %.lr.ph, !llvm.loop !66

.loopexit:                                        ; preds = %.lr.ph, %15, %.preheader
  %.pre-phi = phi i32 [ %17, %.preheader ], [ 0, %15 ], [ %17, %.lr.ph ]
  %.028 = phi i32 [ %0, %.preheader ], [ %.pre, %15 ], [ %0, %.lr.ph ]
  tail call void @llvm.memset.p0.i64(ptr nonnull align 8 %8, i8 0, i64 %7, i1 false)
  tail call void @llvm.memset.p0.i64(ptr nonnull align 4 %12, i8 0, i64 %11, i1 false)
  %21 = sext i32 %.pre-phi to i64
  %22 = getelementptr inbounds ptr, ptr %4, i64 %21
  %23 = sext i32 %.028 to i64
  %24 = shl nsw i64 %23, 3
  tail call void @llvm.memcpy.p0.p0.i64(ptr nonnull align 8 %8, ptr nonnull align 8 %22, i64 %24, i1 false)
  %25 = load ptr, ptr @history_sensitive, align 8, !tbaa !64
  %26 = getelementptr inbounds i32, ptr %25, i64 %21
  %27 = shl nsw i64 %23, 2
  tail call void @llvm.memcpy.p0.p0.i64(ptr nonnull align 4 %12, ptr align 4 %26, i64 %27, i1 false)
  tail call void @free(ptr noundef nonnull %4) #24
  tail call void @free(ptr noundef %25) #24
  store ptr %8, ptr @history, align 8, !tbaa !40
  store ptr %12, ptr @history_sensitive, align 8, !tbaa !64
  br label %28

28:                                               ; preds = %.loopexit, %3
  store i32 %0, ptr @history_max_len, align 4, !tbaa !4
  %29 = icmp sgt i32 %.pre, %0
  br i1 %29, label %30, label %.critedge

30:                                               ; preds = %28
  store i32 %0, ptr @history_len, align 4, !tbaa !4
  br label %.critedge

.critedge:                                        ; preds = %14, %5, %28, %30, %1
  %.030 = phi i32 [ 0, %1 ], [ 1, %30 ], [ 1, %28 ], [ 0, %5 ], [ 0, %14 ]
  ret i32 %.030
}